; Function Attrs: mustprogress nounwind uwtable
define void @_ZN6icu_7710ICUServiceD2Ev(ptr noundef nonnull align 8 dereferenceable(120) initializes((0, 8)) %0) unnamed_addr #3 align 2 personality ptr @__gxx_personality_v0 {
  store ptr getelementptr inbounds nuw inrange(-16, 152) (i8, ptr @_ZTVN6icu_7710ICUServiceE, i64 16), ptr %0, align 8, !tbaa !3
  invoke void @umtx_lock_77(ptr noundef nonnull @_ZN6icu_77L4lockE)
          to label %_ZN6icu_775MutexC2EPNS_6UMutexE.exit unwind label %18

_ZN6icu_775MutexC2EPNS_6UMutexE.exit:             ; preds = %1
  %2 = load ptr, ptr %0, align 8, !tbaa !3
  %3 = getelementptr inbounds nuw i8, ptr %2, i64 144
  %4 = load ptr, ptr %3, align 8
  invoke void %4(ptr noundef nonnull align 8 dereferenceable(120) %0)
          to label %5 unwind label %18

5:                                                ; preds = %_ZN6icu_775MutexC2EPNS_6UMutexE.exit
  %6 = getelementptr inbounds nuw i8, ptr %0, i64 88
  %7 = load ptr, ptr %6, align 8, !tbaa !34
  %8 = icmp eq ptr %7, null
  br i1 %8, label %13, label %9

9:                                                ; preds = %5
  %10 = load ptr, ptr %7, align 8, !tbaa !3
  %11 = getelementptr inbounds nuw i8, ptr %10, i64 8
  %12 = load ptr, ptr %11, align 8
  tail call void %12(ptr noundef nonnull align 8 dereferenceable(40) %7) #17
  br label %13

13:                                               ; preds = %9, %5
  store ptr null, ptr %6, align 8, !tbaa !34
  invoke void @umtx_unlock_77(ptr noundef nonnull @_ZN6icu_77L4lockE)
          to label %_ZN6icu_775MutexD2Ev.exit unwind label %14

14:                                               ; preds = %13
  %15 = landingpad { ptr, i32 }
          catch ptr null
  %16 = extractvalue { ptr, i32 } %15, 0
  tail call void @__clang_call_terminate(ptr %16) #18
  unreachable

_ZN6icu_775MutexD2Ev.exit:                        ; preds = %13
  %17 = getelementptr inbounds nuw i8, ptr %0, i64 16
  tail call void @_ZN6icu_7713UnicodeStringD1Ev(ptr noundef nonnull align 8 dereferenceable(64) %17) #17
  tail call void @_ZN6icu_7711ICUNotifierD2Ev(ptr noundef nonnull align 8 dereferenceable(16) %0) #17
  ret void

18:                                               ; preds = %1, %_ZN6icu_775MutexC2EPNS_6UMutexE.exit
  %19 = landingpad { ptr, i32 }
          catch ptr null
  %20 = extractvalue { ptr, i32 } %19, 0
  tail call void @__clang_call_terminate(ptr %20) #18
  unreachable
}